target datalayout = "e-m:e-p270:32:32-p271:32:32-p272:64:64-i64:64-i128:128-f80:128-n8:16:32:64-S128"
target triple = "x86_64-pc-linux-gnu"

%struct.slabclass_t = type { i32, i32, ptr, i32, i32, ptr, i32 }
%union.pthread_mutex_t = type { %struct.__pthread_mutex_s }
%struct.__pthread_mutex_s = type { i32, i32, i32, i32, i32, i16, i16, %struct.__pthread_internal_list }
%struct.__pthread_internal_list = type { ptr, ptr }
%struct._stritem = type { ptr, ptr, ptr, i32, i32, i32, i16, i16, i8, i8, [0 x %union.anon] }
%union.anon = type { i64 }

@slabclass = internal global [64 x %struct.slabclass_t] zeroinitializer, align 16
@power_largest = internal global i32 0, align 4
@slabs_lock = internal global %union.pthread_mutex_t zeroinitializer, align 8

; Function Attrs: nounwind uwtable
define internal ptr @do_slabs_alloc(i32 noundef %0, i32 noundef %1) #0 {
  %3 = alloca ptr, align 8
  %4 = alloca i32, align 4
  %5 = alloca i32, align 4
  %6 = alloca ptr, align 8
  %7 = alloca ptr, align 8
  %8 = alloca ptr, align 8
  %9 = alloca i32, align 4
  store i32 %0, ptr %4, align 4, !tbaa !8
  store i32 %1, ptr %5, align 4, !tbaa !8
  call void @llvm.lifetime.start.p0(i64 8, ptr %6) #9
  call void @llvm.lifetime.start.p0(i64 8, ptr %7) #9
  store ptr null, ptr %7, align 8, !tbaa !25
  call void @llvm.lifetime.start.p0(i64 8, ptr %8) #9
  store ptr null, ptr %8, align 8, !tbaa !22
  %10 = load i32, ptr %4, align 4, !tbaa !8
  %11 = icmp ult i32 %10, 1
  br i1 %11, label %16, label %12

12:                                               ; preds = %2
  %13 = load i32, ptr %4, align 4, !tbaa !8
  %14 = load i32, ptr @power_largest, align 4, !tbaa !8
  %15 = icmp ugt i32 %13, %14
  br i1 %15, label %16, label %17

16:                                               ; preds = %12, %2
  store ptr null, ptr %3, align 8
  store i32 1, ptr %9, align 4
  br label %76

17:                                               ; preds = %12
  %18 = load i32, ptr %4, align 4, !tbaa !8
  %19 = zext i32 %18 to i64
  %20 = getelementptr inbounds nuw [64 x %struct.slabclass_t], ptr @slabclass, i64 0, i64 %19
  store ptr %20, ptr %6, align 8, !tbaa !25
  %21 = load ptr, ptr %6, align 8, !tbaa !25
  %22 = getelementptr inbounds nuw %struct.slabclass_t, ptr %21, i32 0, i32 3
  %23 = load i32, ptr %22, align 8, !tbaa !31
  %24 = icmp eq i32 %23, 0
  br i1 %24, label %25, label %31

25:                                               ; preds = %17
  %26 = load i32, ptr %5, align 4, !tbaa !8
  %27 = icmp ne i32 %26, 1
  br i1 %27, label %28, label %31

28:                                               ; preds = %25
  %29 = load i32, ptr %4, align 4, !tbaa !8
  %30 = call i32 @do_slabs_newslab(i32 noundef %29)
  br label %31

31:                                               ; preds = %28, %25, %17
  %32 = load ptr, ptr %6, align 8, !tbaa !25
  %33 = getelementptr inbounds nuw %struct.slabclass_t, ptr %32, i32 0, i32 3
  %34 = load i32, ptr %33, align 8, !tbaa !31
  %35 = icmp ne i32 %34, 0
  br i1 %35, label %36, label %68

36:                                               ; preds = %31
  %37 = load ptr, ptr %6, align 8, !tbaa !25
  %38 = getelementptr inbounds nuw %struct.slabclass_t, ptr %37, i32 0, i32 2
  %39 = load ptr, ptr %38, align 8, !tbaa !30
  store ptr %39, ptr %8, align 8, !tbaa !22
  %40 = load ptr, ptr %8, align 8, !tbaa !22
  %41 = getelementptr inbounds nuw %struct._stritem, ptr %40, i32 0, i32 0
  %42 = load ptr, ptr %41, align 8, !tbaa !22
  %43 = load ptr, ptr %6, align 8, !tbaa !25
  %44 = getelementptr inbounds nuw %struct.slabclass_t, ptr %43, i32 0, i32 2
  store ptr %42, ptr %44, align 8, !tbaa !30
  %45 = load ptr, ptr %8, align 8, !tbaa !22
  %46 = getelementptr inbounds nuw %struct._stritem, ptr %45, i32 0, i32 0
  %47 = load ptr, ptr %46, align 8, !tbaa !22
  %48 = icmp ne ptr %47, null
  br i1 %48, label %49, label %54

49:                                               ; preds = %36
  %50 = load ptr, ptr %8, align 8, !tbaa !22
  %51 = getelementptr inbounds nuw %struct._stritem, ptr %50, i32 0, i32 0
  %52 = load ptr, ptr %51, align 8, !tbaa !22
  %53 = getelementptr inbounds nuw %struct._stritem, ptr %52, i32 0, i32 1
  store ptr null, ptr %53, align 8, !tbaa !22
  br label %54

54:                                               ; preds = %49, %36
  %55 = load ptr, ptr %8, align 8, !tbaa !22
  %56 = getelementptr inbounds nuw %struct._stritem, ptr %55, i32 0, i32 7
  %57 = load i16, ptr %56, align 2, !tbaa !28
  %58 = zext i16 %57 to i32
  %59 = and i32 %58, -5
  %60 = trunc i32 %59 to i16
  store i16 %60, ptr %56, align 2, !tbaa !28
  %61 = load ptr, ptr %8, align 8, !tbaa !22
  %62 = getelementptr inbounds nuw %struct._stritem, ptr %61, i32 0, i32 6
  store i16 1, ptr %62, align 4, !tbaa !28
  %63 = load ptr, ptr %6, align 8, !tbaa !25
  %64 = getelementptr inbounds nuw %struct.slabclass_t, ptr %63, i32 0, i32 3
  %65 = load i32, ptr %64, align 8, !tbaa !31
  %66 = add i32 %65, -1
  store i32 %66, ptr %64, align 8, !tbaa !31
  %67 = load ptr, ptr %8, align 8, !tbaa !22
  store ptr %67, ptr %7, align 8, !tbaa !25
  br label %69

68:                                               ; preds = %31
  store ptr null, ptr %7, align 8, !tbaa !25
  br label %69

69:                                               ; preds = %68, %54
  %70 = load ptr, ptr %7, align 8, !tbaa !25
  %71 = icmp ne ptr %70, null
  br i1 %71, label %72, label %73

72:                                               ; preds = %69
  br label %74

73:                                               ; preds = %69
  br label %74

74:                                               ; preds = %73, %72
  %75 = load ptr, ptr %7, align 8, !tbaa !25
  store ptr %75, ptr %3, align 8
  store i32 1, ptr %9, align 4
  br label %76

76:                                               ; preds = %74, %16
  call void @llvm.lifetime.end.p0(i64 8, ptr %8) #9
  call void @llvm.lifetime.end.p0(i64 8, ptr %7) #9
  call void @llvm.lifetime.end.p0(i64 8, ptr %6) #9
  %77 = load ptr, ptr %3, align 8
  ret ptr %77
}

; Function Attrs: nounwind uwtable
define dso_local ptr @slabs_alloc(i32 noundef %0, i32 noundef %1) #0 {
  %3 = alloca i32, align 4
  %4 = alloca i32, align 4
  %5 = alloca ptr, align 8
  store i32 %0, ptr %3, align 4, !tbaa !8
  store i32 %1, ptr %4, align 4, !tbaa !8
  call void @llvm.lifetime.start.p0(i64 8, ptr %5) #9
  %6 = call i32 @pthread_mutex_lock(ptr noundef @slabs_lock) #9
  %7 = load i32, ptr %3, align 4, !tbaa !8
  %8 = load i32, ptr %4, align 4, !tbaa !8
  %9 = call ptr @do_slabs_alloc(i32 noundef %7, i32 noundef %8)
  store ptr %9, ptr %5, align 8, !tbaa !25
  %10 = call i32 @pthread_mutex_unlock(ptr noundef @slabs_lock) #9
  %11 = load ptr, ptr %5, align 8, !tbaa !25
  call void @llvm.lifetime.end.p0(i64 8, ptr %5) #9
  ret ptr %11
}