; Function Attrs: nounwind uwtable
define dso_local noundef ptr @slabs_alloc(i32 noundef %0, i32 noundef %1) local_unnamed_addr #4 {
  %3 = tail call i32 @pthread_mutex_lock(ptr noundef nonnull @slabs_lock) #21
  %4 = load i32, ptr @power_largest, align 4
  %5 = freeze i32 %4
  %6 = add i32 %0, -1
  %or.cond23.not.i = icmp ult i32 %6, %5
  br i1 %or.cond23.not.i, label %7, label %do_slabs_alloc.exit

7:                                                ; preds = %2
  %8 = zext i32 %0 to i64
  %9 = getelementptr inbounds nuw [64 x %struct.slabclass_t], ptr @slabclass, i64 0, i64 %8
  %10 = getelementptr inbounds nuw i8, ptr %9, i64 16
  %11 = load i32, ptr %10, align 8, !tbaa !23
  %12 = icmp eq i32 %11, 0
  %13 = icmp ne i32 %1, 1
  %or.cond.i = and i1 %13, %12
  br i1 %or.cond.i, label %14, label %16

14:                                               ; preds = %7
  %15 = tail call fastcc i32 @do_slabs_newslab(i32 noundef %0)
  %.pr.i = load i32, ptr %10, align 8, !tbaa !23
  br label %16

16:                                               ; preds = %14, %7
  %17 = phi i32 [ %.pr.i, %14 ], [ %11, %7 ]
  %.not.i = icmp eq i32 %17, 0
  br i1 %.not.i, label %do_slabs_alloc.exit, label %18

18:                                               ; preds = %16
  %19 = getelementptr inbounds nuw i8, ptr %9, i64 8
  %20 = load ptr, ptr %19, align 8, !tbaa !22
  %21 = load ptr, ptr %20, align 8, !tbaa !20
  store ptr %21, ptr %19, align 8, !tbaa !22
  %.not21.i = icmp eq ptr %21, null
  br i1 %.not21.i, label %24, label %22

22:                                               ; preds = %18
  %23 = getelementptr inbounds nuw i8, ptr %21, i64 8
  store ptr null, ptr %23, align 8, !tbaa !20
  br label %24

24:                                               ; preds = %22, %18
  %25 = getelementptr inbounds nuw i8, ptr %20, i64 38
  %26 = load i16, ptr %25, align 2, !tbaa !18
  %27 = and i16 %26, -5
  store i16 %27, ptr %25, align 2, !tbaa !18
  %28 = getelementptr inbounds nuw i8, ptr %20, i64 36
  store i16 1, ptr %28, align 4, !tbaa !18
  %29 = add i32 %17, -1
  store i32 %29, ptr %10, align 8, !tbaa !23
  br label %do_slabs_alloc.exit

do_slabs_alloc.exit:                              ; preds = %2, %16, %24
  %.018.i = phi ptr [ null, %2 ], [ %20, %24 ], [ null, %16 ]
  %30 = tail call i32 @pthread_mutex_unlock(ptr noundef nonnull @slabs_lock) #21
  ret ptr %.018.i
}